target datalayout = "e-m:e-p270:32:32-p271:32:32-p272:64:64-i64:64-i128:128-f80:128-n8:16:32:64-S128"
target triple = "x86_64-pc-linux-gnu"

%class.JVMCIEnv = type { ptr, i8, i8, ptr, i8, i8, ptr, i32, i32, ptr, ptr }
%class.JVMCIObject = type <{ ptr, i8, [7 x i8] }>

; Function Attrs: mustprogress nounwind uwtable
define linkonce_odr hidden { ptr, i8 } @_ZN12HotSpotJVMCI12JavaConstant11get_ILLEGALEP8JVMCIEnv(ptr noundef %0) #1 comdat align 2 {
  %2 = alloca %class.JVMCIObject, align 8
  %3 = alloca ptr, align 8
  store ptr %0, ptr %3, align 8
  %4 = load ptr, ptr %3, align 8
  %5 = call noundef ptr @_ZN12HotSpotJVMCI12JavaConstant7ILLEGALEP8JVMCIEnv(ptr noundef %4)
  %6 = call { ptr, i8 } @_ZN12HotSpotJVMCI4wrapEP7oopDesc(ptr noundef %5)
  %7 = getelementptr inbounds { ptr, i8 }, ptr %2, i32 0, i32 0
  %8 = extractvalue { ptr, i8 } %6, 0
  store ptr %8, ptr %7, align 8
  %9 = getelementptr inbounds { ptr, i8 }, ptr %2, i32 0, i32 1
  %10 = extractvalue { ptr, i8 } %6, 1
  store i8 %10, ptr %9, align 8
  %11 = load { ptr, i8 }, ptr %2, align 8
  ret { ptr, i8 } %11
}

; Function Attrs: mustprogress nounwind uwtable
define linkonce_odr hidden noundef zeroext i1 @_ZN8JVMCIEnv10is_hotspotEv(ptr noundef nonnull align 8 dereferenceable(64) %0) #1 comdat align 2 {
  %2 = alloca ptr, align 8
  store ptr %0, ptr %2, align 8
  %3 = load ptr, ptr %2, align 8
  %4 = getelementptr inbounds %class.JVMCIEnv, ptr %3, i32 0, i32 4
  %5 = load i8, ptr %4, align 8
  %6 = trunc i8 %5 to i1
  ret i1 %6
}

; Function Attrs: mustprogress nounwind uwtable
define hidden { ptr, i8 } @_ZN8JVMCIEnv24get_JavaConstant_ILLEGALEv(ptr noundef nonnull align 8 dereferenceable(64) %0) #1 align 2 {
  %2 = alloca %class.JVMCIObject, align 8
  %3 = alloca ptr, align 8
  store ptr %0, ptr %3, align 8
  %4 = load ptr, ptr %3, align 8
  %5 = call noundef zeroext i1 @_ZN8JVMCIEnv10is_hotspotEv(ptr noundef nonnull align 8 dereferenceable(64) %4)
  br i1 %5, label %6, label %12

6:                                                ; preds = %1
  %7 = call { ptr, i8 } @_ZN12HotSpotJVMCI12JavaConstant11get_ILLEGALEP8JVMCIEnv(ptr noundef %4)
  %8 = getelementptr inbounds { ptr, i8 }, ptr %2, i32 0, i32 0
  %9 = extractvalue { ptr, i8 } %7, 0
  store ptr %9, ptr %8, align 8
  %10 = getelementptr inbounds { ptr, i8 }, ptr %2, i32 0, i32 1
  %11 = extractvalue { ptr, i8 } %7, 1
  store i8 %11, ptr %10, align 8
  br label %18

12:                                               ; preds = %1
  %13 = call { ptr, i8 } @_ZN8JNIJVMCI12JavaConstant11get_ILLEGALEP8JVMCIEnv(ptr noundef %4)
  %14 = getelementptr inbounds { ptr, i8 }, ptr %2, i32 0, i32 0
  %15 = extractvalue { ptr, i8 } %13, 0
  store ptr %15, ptr %14, align 8
  %16 = getelementptr inbounds { ptr, i8 }, ptr %2, i32 0, i32 1
  %17 = extractvalue { ptr, i8 } %13, 1
  store i8 %17, ptr %16, align 8
  br label %18

18:                                               ; preds = %12, %6
  %19 = load { ptr, i8 }, ptr %2, align 8
  ret { ptr, i8 } %19
}