; Function Attrs: mustprogress nounwind uwtable
define hidden { ptr, i8 } @_ZN8JVMCIEnv24get_JavaConstant_ILLEGALEv(ptr noundef nonnull align 8 dereferenceable(64) %0) local_unnamed_addr #0 align 2 {
  %2 = getelementptr inbounds i8, ptr %0, i64 24
  %3 = load i8, ptr %2, align 8
  %4 = trunc i8 %3 to i1
  br i1 %4, label %5, label %8

5:                                                ; preds = %1
  %6 = tail call noundef ptr @_ZN12HotSpotJVMCI12JavaConstant7ILLEGALEP8JVMCIEnv(ptr noundef nonnull %0) #14
  %7 = tail call { ptr, i8 } @_ZN12HotSpotJVMCI4wrapEP7oopDesc(ptr noundef %6) #14
  br label %10

8:                                                ; preds = %1
  %9 = tail call { ptr, i8 } @_ZN8JNIJVMCI12JavaConstant11get_ILLEGALEP8JVMCIEnv(ptr noundef nonnull %0) #14
  br label %10

10:                                               ; preds = %8, %5
  %.pn = phi { ptr, i8 } [ %7, %5 ], [ %9, %8 ]
  ret { ptr, i8 } %.pn
}